; Function Attrs: mustprogress uwtable
define void @_ZN4cvc56parser11InputParserC2EPNS_6SolverEPNS0_13SymbolManagerE(ptr noundef nonnull align 8 dereferenceable(440) %this, ptr noundef %solver, ptr noundef %sm) unnamed_addr #3 align 2 personality ptr @__gxx_personality_v0 {
entry:
  store ptr %solver, ptr %this, align 8
  %d_allocSm = getelementptr inbounds i8, ptr %this, i64 8
  store ptr null, ptr %d_allocSm, align 8
  %d_sm = getelementptr inbounds i8, ptr %this, i64 16
  store ptr %sm, ptr %d_sm, align 8
  %d_istringStream = getelementptr inbounds i8, ptr %this, i64 24
  invoke void @_ZNSt7__cxx1118basic_stringstreamIcSt11char_traitsIcESaIcEEC1Ev(ptr noundef nonnull align 8 dereferenceable(128) %d_istringStream)
          to label %invoke.cont unwind label %lpad

invoke.cont:                                      ; preds = %entry
  %d_usingIStringStream = getelementptr inbounds i8, ptr %this, i64 416
  store i8 0, ptr %d_usingIStringStream, align 8
  %d_parser = getelementptr inbounds i8, ptr %this, i64 424
  tail call void @llvm.memset.p0.i64(ptr noundef nonnull align 8 dereferenceable(16) %d_parser, i8 0, i64 16, i1 false)
  invoke void @_ZN4cvc56parser11InputParser10initializeEv(ptr noundef nonnull align 8 dereferenceable(440) %this)
          to label %invoke.cont3 unwind label %lpad2

invoke.cont3:                                     ; preds = %invoke.cont
  ret void

lpad:                                             ; preds = %entry
  %0 = landingpad { ptr, i32 }
          cleanup
  br label %ehcleanup

lpad2:                                            ; preds = %invoke.cont
  %1 = landingpad { ptr, i32 }
          cleanup
  tail call void @_ZNSt10shared_ptrIN4cvc56parser6ParserEED2Ev(ptr noundef nonnull align 8 dereferenceable(16) %d_parser) #22
  tail call void @_ZNSt7__cxx1118basic_stringstreamIcSt11char_traitsIcESaIcEED1Ev(ptr noundef nonnull align 8 dereferenceable(128) %d_istringStream) #22
  br label %ehcleanup

ehcleanup:                                        ; preds = %lpad2, %lpad
  %.pn = phi { ptr, i32 } [ %1, %lpad2 ], [ %0, %lpad ]
  %2 = load ptr, ptr %d_allocSm, align 8
  %cmp.not.i = icmp eq ptr %2, null
  br i1 %cmp.not.i, label %_ZNSt10unique_ptrIN4cvc56parser13SymbolManagerESt14default_deleteIS2_EED2Ev.exit, label %_ZNKSt14default_deleteIN4cvc56parser13SymbolManagerEEclEPS2_.exit.i

_ZNKSt14default_deleteIN4cvc56parser13SymbolManagerEEclEPS2_.exit.i: ; preds = %ehcleanup
  tail call void @_ZN4cvc56parser13SymbolManagerD1Ev(ptr noundef nonnull align 8 dereferenceable(16) %2) #22
  tail call void @_ZdlPv(ptr noundef nonnull %2) #21
  br label %_ZNSt10unique_ptrIN4cvc56parser13SymbolManagerESt14default_deleteIS2_EED2Ev.exit

_ZNSt10unique_ptrIN4cvc56parser13SymbolManagerESt14default_deleteIS2_EED2Ev.exit: ; preds = %ehcleanup, %_ZNKSt14default_deleteIN4cvc56parser13SymbolManagerEEclEPS2_.exit.i
  store ptr null, ptr %d_allocSm, align 8
  resume { ptr, i32 } %.pn
}